; Function Attrs: nounwind uwtable
define ptr @l_Std_Range_forIn_x27_loop___at_Lean_Elab_getFixedParamsInfo___spec__26___lambda__1(ptr noundef %0, ptr noundef readonly captures(none) %1, ptr noundef %2, ptr noundef %3, ptr readnone captures(none) %4, ptr noundef readonly captures(none) %5, ptr noundef %6, ptr noundef %7, ptr noundef %8, ptr noundef %9, ptr noundef %10, ptr noundef %11, ptr noundef %12) local_unnamed_addr #1 {
  %14 = tail call ptr @l___private_Lean_Expr_0__Lean_Expr_getAppNumArgsAux(ptr noundef %7, ptr noundef nonnull inttoptr (i64 1 to ptr)) #5
  %15 = load ptr, ptr @l_Lean_Meta_transformWithCache_visit___at_Lean_Elab_getFixedParamsInfo___spec__10___lambda__1___closed__1, align 8, !tbaa !9
  %16 = ptrtoint ptr %14 to i64
  %17 = and i64 %16, 1
  %.not = icmp eq i64 %17, 0
  br i1 %.not, label %18, label %24

18:                                               ; preds = %13
  %.val.i = load i32, ptr %14, align 4, !tbaa !4
  %19 = icmp sgt i32 %.val.i, 0
  br i1 %19, label %20, label %22, !prof !11

20:                                               ; preds = %18
  %21 = add nuw i32 %.val.i, 1
  store i32 %21, ptr %14, align 4, !tbaa !4
  br label %30

22:                                               ; preds = %18
  %.not.i27 = icmp eq i32 %.val.i, 0
  br i1 %.not.i27, label %30, label %23

23:                                               ; preds = %22
  tail call void @lean_inc_ref_cold(ptr noundef nonnull %14) #5
  br label %30

24:                                               ; preds = %13
  %25 = tail call ptr @lean_mk_array(ptr noundef %14, ptr noundef %15) #5
  %26 = icmp ult ptr %14, inttoptr (i64 2 to ptr)
  br i1 %26, label %lean_dec.exit, label %27

27:                                               ; preds = %24
  %28 = add i64 %16, -2
  %29 = inttoptr i64 %28 to ptr
  br label %lean_dec.exit

30:                                               ; preds = %23, %22, %20
  %31 = tail call ptr @lean_mk_array(ptr noundef nonnull %14, ptr noundef %15) #5
  %32 = tail call ptr @lean_nat_big_sub(ptr noundef nonnull %14, ptr noundef nonnull inttoptr (i64 3 to ptr)) #5
  %33 = load i32, ptr %14, align 4, !tbaa !4
  %34 = icmp sgt i32 %33, 1
  br i1 %34, label %35, label %37, !prof !11

35:                                               ; preds = %30
  %36 = add nsw i32 %33, -1
  store i32 %36, ptr %14, align 4, !tbaa !4
  br label %lean_dec.exit

37:                                               ; preds = %30
  %.not.i = icmp eq i32 %33, 0
  br i1 %.not.i, label %lean_dec.exit, label %38

38:                                               ; preds = %37
  tail call void @lean_dec_ref_cold(ptr noundef nonnull %14) #5
  br label %lean_dec.exit

lean_dec.exit:                                    ; preds = %27, %24, %38, %37, %35
  %.1.i32 = phi ptr [ %32, %35 ], [ %32, %37 ], [ %32, %38 ], [ inttoptr (i64 1 to ptr), %24 ], [ %29, %27 ]
  %39 = phi ptr [ %31, %35 ], [ %31, %37 ], [ %31, %38 ], [ %25, %24 ], [ %25, %27 ]
  %40 = ptrtoint ptr %7 to i64
  %41 = and i64 %40, 1
  %.not33 = icmp eq i64 %41, 0
  br i1 %.not33, label %42, label %lean_inc.exit

42:                                               ; preds = %lean_dec.exit
  %.val.i28 = load i32, ptr %7, align 4, !tbaa !4
  %43 = icmp sgt i32 %.val.i28, 0
  br i1 %43, label %44, label %46, !prof !11

44:                                               ; preds = %42
  %45 = add nuw i32 %.val.i28, 1
  store i32 %45, ptr %7, align 4, !tbaa !4
  br label %lean_inc.exit

46:                                               ; preds = %42
  %.not.i29 = icmp eq i32 %.val.i28, 0
  br i1 %.not.i29, label %lean_inc.exit, label %47

47:                                               ; preds = %46
  tail call void @lean_inc_ref_cold(ptr noundef nonnull %7) #5
  br label %lean_inc.exit

lean_inc.exit:                                    ; preds = %47, %46, %44, %lean_dec.exit
  %48 = tail call ptr @l_Lean_Expr_withAppAux___at_Lean_Elab_getFixedParamsInfo___spec__8(ptr noundef %0, ptr noundef %1, ptr noundef %2, ptr noundef %3, ptr poison, ptr noundef %5, ptr noundef %6, ptr noundef %7, ptr noundef %7, ptr noundef %39, ptr noundef %.1.i32, ptr noundef %8, ptr noundef %9, ptr noundef %10, ptr noundef %11, ptr noundef %12)
  ret ptr %48
}